; Function Attrs: nounwind uwtable
define dso_local range(i32 -1, 1) i32 @PyList_Insert(ptr noundef captures(none) %0, i64 noundef %1, ptr noundef %2) local_unnamed_addr #0 {
  %4 = getelementptr i8, ptr %0, i64 8
  %.val = load ptr, ptr %4, align 8, !tbaa !105
  %5 = getelementptr i8, ptr %.val, i64 168
  %.val6 = load i64, ptr %5, align 8, !tbaa !106
  %6 = and i64 %.val6, 33554432
  %.not = icmp eq i64 %6, 0
  br i1 %.not, label %7, label %8

7:                                                ; preds = %3
  tail call void @_PyErr_BadInternalCall(ptr noundef nonnull @.str.1, i32 noundef 478) #12
  br label %10

8:                                                ; preds = %3
  %9 = tail call fastcc i32 @ins1(ptr noundef nonnull %0, i64 noundef %1, ptr noundef %2)
  br label %10

10:                                               ; preds = %8, %7
  %.0 = phi i32 [ %9, %8 ], [ -1, %7 ]
  ret i32 %.0
}